target datalayout = "e-m:e-p270:32:32-p271:32:32-p272:64:64-i64:64-i128:128-f80:128-n8:16:32:64-S128"
target triple = "x86_64-pc-linux-gnu"

%struct.MMSTContext = type { %struct.MMSContext, i32, [256 x i8], [128 x i8], i32, i32, i32, i32 }
%struct.MMSContext = type { ptr, ptr, ptr, [512 x i8], [65536 x i8], ptr, i32, ptr, i32, i32, i32, i32, i32, i32 }
%struct.FFIOContext = type { %struct.AVIOContext, ptr, i32, i32, i64, i64, i64, i64, i32, i32, i32, i64 }
%struct.AVIOContext = type { ptr, ptr, i32, ptr, ptr, ptr, ptr, ptr, ptr, i64, i32, i32, i32, i32, i32, i64, ptr, ptr, ptr, ptr, i32, i32, ptr, ptr, ptr, i32, ptr, i64, i64 }

@.str.11 = private unnamed_addr constant [33 x i8] c"The server closed the connection\00", align 1
@.str.19 = private unnamed_addr constant [44 x i8] c"Failed to write data of length %d: %d (%s)\0A\00", align 1
@.str.24 = private unnamed_addr constant [20 x i8] c"\\\\%d.%d.%d.%d\\%s\\%d\00", align 1
@.str.25 = private unnamed_addr constant [4 x i8] c"TCP\00", align 1

; Function Attrs: inlinehint nounwind uwtable
define internal i32 @ffurl_write(ptr noundef %0, ptr noundef %1, i32 noundef %2) #7 {
  %4 = alloca ptr, align 8
  %5 = alloca ptr, align 8
  %6 = alloca i32, align 4
  store ptr %0, ptr %4, align 8, !tbaa !4
  store ptr %1, ptr %5, align 8, !tbaa !9
  store i32 %2, ptr %6, align 4, !tbaa !11
  %7 = load ptr, ptr %4, align 8, !tbaa !4
  %8 = load ptr, ptr %5, align 8, !tbaa !9
  %9 = load i32, ptr %6, align 4, !tbaa !11
  %10 = call i32 @ffurl_write2(ptr noundef %7, ptr noundef %8, i32 noundef %9)
  ret i32 %10
}

; Function Attrs: alwaysinline nounwind uwtable
define internal void @bytestream_put_le16(ptr noundef %0, i32 noundef %1) #5 {
  %3 = alloca ptr, align 8
  %4 = alloca i32, align 4
  store ptr %0, ptr %3, align 8, !tbaa !52
  store i32 %1, ptr %4, align 4, !tbaa !11
  %5 = load i32, ptr %4, align 4, !tbaa !11
  %6 = trunc i32 %5 to i16
  %7 = load ptr, ptr %3, align 8, !tbaa !52
  %8 = load ptr, ptr %7, align 8, !tbaa !9
  store i16 %6, ptr %8, align 1, !tbaa !47
  %9 = load ptr, ptr %3, align 8, !tbaa !52
  %10 = load ptr, ptr %9, align 8, !tbaa !9
  %11 = getelementptr inbounds i8, ptr %10, i64 2
  store ptr %11, ptr %9, align 8, !tbaa !9
  ret void
}

; Function Attrs: alwaysinline nounwind uwtable
define internal void @bytestream_put_le64(ptr noundef %0, i64 noundef %1) #5 {
  %3 = alloca ptr, align 8
  %4 = alloca i64, align 8
  store ptr %0, ptr %3, align 8, !tbaa !52
  store i64 %1, ptr %4, align 8, !tbaa !55
  %5 = load i64, ptr %4, align 8, !tbaa !55
  %6 = load ptr, ptr %3, align 8, !tbaa !52
  %7 = load ptr, ptr %6, align 8, !tbaa !9
  store i64 %5, ptr %7, align 1, !tbaa !47
  %8 = load ptr, ptr %3, align 8, !tbaa !52
  %9 = load ptr, ptr %8, align 8, !tbaa !9
  %10 = getelementptr inbounds i8, ptr %9, i64 8
  store ptr %10, ptr %8, align 8, !tbaa !9
  ret void
}

; Function Attrs: nounwind uwtable
define internal i32 @send_command_packet(ptr noundef %0) #0 {
  %2 = alloca i32, align 4
  %3 = alloca ptr, align 8
  %4 = alloca ptr, align 8
  %5 = alloca i32, align 4
  %6 = alloca i32, align 4
  %7 = alloca i32, align 4
  %8 = alloca i32, align 4
  %9 = alloca i32, align 4
  %10 = alloca i32, align 4
  store ptr %0, ptr %3, align 8, !tbaa !19
  call void @llvm.lifetime.start.p0(i64 8, ptr %4) #8
  %11 = load ptr, ptr %3, align 8, !tbaa !19
  %12 = getelementptr inbounds nuw %struct.MMSTContext, ptr %11, i32 0, i32 0
  store ptr %12, ptr %4, align 8, !tbaa !22
  call void @llvm.lifetime.start.p0(i64 4, ptr %5) #8
  %13 = load ptr, ptr %4, align 8, !tbaa !22
  %14 = getelementptr inbounds nuw %struct.MMSContext, ptr %13, i32 0, i32 2
  %15 = load ptr, ptr %14, align 8, !tbaa !50
  %16 = load ptr, ptr %4, align 8, !tbaa !22
  %17 = getelementptr inbounds nuw %struct.MMSContext, ptr %16, i32 0, i32 3
  %18 = getelementptr inbounds [512 x i8], ptr %17, i64 0, i64 0
  %19 = ptrtoint ptr %15 to i64
  %20 = ptrtoint ptr %18 to i64
  %21 = sub i64 %19, %20
  %22 = trunc i64 %21 to i32
  store i32 %22, ptr %5, align 4, !tbaa !11
  call void @llvm.lifetime.start.p0(i64 4, ptr %6) #8
  %23 = load i32, ptr %5, align 4, !tbaa !11
  %24 = add nsw i32 %23, 8
  %25 = sub nsw i32 %24, 1
  %26 = and i32 %25, -8
  store i32 %26, ptr %6, align 4, !tbaa !11
  call void @llvm.lifetime.start.p0(i64 4, ptr %7) #8
  %27 = load i32, ptr %6, align 4, !tbaa !11
  %28 = sub nsw i32 %27, 16
  store i32 %28, ptr %7, align 4, !tbaa !11
  call void @llvm.lifetime.start.p0(i64 4, ptr %8) #8
  %29 = load i32, ptr %7, align 4, !tbaa !11
  %30 = sdiv i32 %29, 8
  store i32 %30, ptr %8, align 4, !tbaa !11
  call void @llvm.lifetime.start.p0(i64 4, ptr %9) #8
  %31 = load i32, ptr %7, align 4, !tbaa !11
  %32 = load ptr, ptr %4, align 8, !tbaa !22
  %33 = getelementptr inbounds nuw %struct.MMSContext, ptr %32, i32 0, i32 3
  %34 = getelementptr inbounds [512 x i8], ptr %33, i64 0, i64 0
  %35 = getelementptr inbounds i8, ptr %34, i64 8
  store i32 %31, ptr %35, align 1, !tbaa !47
  %36 = load i32, ptr %8, align 4, !tbaa !11
  %37 = load ptr, ptr %4, align 8, !tbaa !22
  %38 = getelementptr inbounds nuw %struct.MMSContext, ptr %37, i32 0, i32 3
  %39 = getelementptr inbounds [512 x i8], ptr %38, i64 0, i64 0
  %40 = getelementptr inbounds i8, ptr %39, i64 16
  store i32 %36, ptr %40, align 1, !tbaa !47
  %41 = load i32, ptr %8, align 4, !tbaa !11
  %42 = sub nsw i32 %41, 2
  %43 = load ptr, ptr %4, align 8, !tbaa !22
  %44 = getelementptr inbounds nuw %struct.MMSContext, ptr %43, i32 0, i32 3
  %45 = getelementptr inbounds [512 x i8], ptr %44, i64 0, i64 0
  %46 = getelementptr inbounds i8, ptr %45, i64 32
  store i32 %42, ptr %46, align 1, !tbaa !47
  %47 = load ptr, ptr %4, align 8, !tbaa !22
  %48 = getelementptr inbounds nuw %struct.MMSContext, ptr %47, i32 0, i32 2
  %49 = load ptr, ptr %48, align 8, !tbaa !50
  %50 = load i32, ptr %6, align 4, !tbaa !11
  %51 = load i32, ptr %5, align 4, !tbaa !11
  %52 = sub nsw i32 %50, %51
  %53 = sext i32 %52 to i64
  call void @llvm.memset.p0.i64(ptr align 1 %49, i8 0, i64 %53, i1 false)
  %54 = load ptr, ptr %4, align 8, !tbaa !22
  %55 = getelementptr inbounds nuw %struct.MMSContext, ptr %54, i32 0, i32 0
  %56 = load ptr, ptr %55, align 8, !tbaa !35
  %57 = load ptr, ptr %4, align 8, !tbaa !22
  %58 = getelementptr inbounds nuw %struct.MMSContext, ptr %57, i32 0, i32 3
  %59 = getelementptr inbounds [512 x i8], ptr %58, i64 0, i64 0
  %60 = load i32, ptr %6, align 4, !tbaa !11
  %61 = call i32 @ffurl_write(ptr noundef %56, ptr noundef %59, i32 noundef %60)
  store i32 %61, ptr %9, align 4, !tbaa !11
  %62 = load i32, ptr %9, align 4, !tbaa !11
  %63 = load i32, ptr %6, align 4, !tbaa !11
  %64 = icmp ne i32 %62, %63
  br i1 %64, label %65, label %80

65:                                               ; preds = %1
  %66 = load ptr, ptr %4, align 8, !tbaa !22
  %67 = getelementptr inbounds nuw %struct.MMSContext, ptr %66, i32 0, i32 0
  %68 = load ptr, ptr %67, align 8, !tbaa !35
  %69 = load i32, ptr %6, align 4, !tbaa !11
  %70 = load i32, ptr %9, align 4, !tbaa !11
  %71 = load i32, ptr %9, align 4, !tbaa !11
  %72 = icmp slt i32 %71, 0
  br i1 %72, label %73, label %77

73:                                               ; preds = %65
  %74 = load i32, ptr %9, align 4, !tbaa !11
  %75 = sub nsw i32 0, %74
  %76 = call ptr @strerror(i32 noundef %75) #8
  br label %78

77:                                               ; preds = %65
  br label %78

78:                                               ; preds = %77, %73
  %79 = phi ptr [ %76, %73 ], [ @.str.11, %77 ]
  call void (ptr, i32, ptr, ...) @av_log(ptr noundef %68, i32 noundef 16, ptr noundef @.str.19, i32 noundef %69, i32 noundef %70, ptr noundef %79)
  store i32 -5, ptr %2, align 4
  store i32 1, ptr %10, align 4
  br label %81

80:                                               ; preds = %1
  store i32 0, ptr %2, align 4
  store i32 1, ptr %10, align 4
  br label %81

81:                                               ; preds = %80, %78
  call void @llvm.lifetime.end.p0(i64 4, ptr %9) #8
  call void @llvm.lifetime.end.p0(i64 4, ptr %8) #8
  call void @llvm.lifetime.end.p0(i64 4, ptr %7) #8
  call void @llvm.lifetime.end.p0(i64 4, ptr %6) #8
  call void @llvm.lifetime.end.p0(i64 4, ptr %5) #8
  call void @llvm.lifetime.end.p0(i64 8, ptr %4) #8
  %82 = load i32, ptr %2, align 4
  ret i32 %82
}

; Function Attrs: nounwind uwtable
define internal i32 @mms_put_utf16(ptr noundef %0, ptr noundef %1) #0 {
  %3 = alloca i32, align 4
  %4 = alloca ptr, align 8
  %5 = alloca ptr, align 8
  %6 = alloca %struct.FFIOContext, align 8
  %7 = alloca i32, align 4
  %8 = alloca i32, align 4
  %9 = alloca i32, align 4
  store ptr %0, ptr %4, align 8, !tbaa !22
  store ptr %1, ptr %5, align 8, !tbaa !9
  call void @llvm.lifetime.start.p0(i64 280, ptr %6) #8
  call void @llvm.lifetime.start.p0(i64 4, ptr %7) #8
  %10 = load ptr, ptr %4, align 8, !tbaa !22
  %11 = getelementptr inbounds nuw %struct.MMSContext, ptr %10, i32 0, i32 2
  %12 = load ptr, ptr %11, align 8, !tbaa !50
  %13 = load ptr, ptr %4, align 8, !tbaa !22
  %14 = getelementptr inbounds nuw %struct.MMSContext, ptr %13, i32 0, i32 3
  %15 = getelementptr inbounds [512 x i8], ptr %14, i64 0, i64 0
  %16 = ptrtoint ptr %12 to i64
  %17 = ptrtoint ptr %15 to i64
  %18 = sub i64 %16, %17
  %19 = trunc i64 %18 to i32
  store i32 %19, ptr %7, align 4, !tbaa !11
  call void @llvm.lifetime.start.p0(i64 4, ptr %8) #8
  %20 = load ptr, ptr %4, align 8, !tbaa !22
  %21 = getelementptr inbounds nuw %struct.MMSContext, ptr %20, i32 0, i32 2
  %22 = load ptr, ptr %21, align 8, !tbaa !50
  %23 = load i32, ptr %7, align 4, !tbaa !11
  %24 = sext i32 %23 to i64
  %25 = sub i64 512, %24
  %26 = trunc i64 %25 to i32
  call void @ffio_init_write_context(ptr noundef %6, ptr noundef %22, i32 noundef %26)
  %27 = getelementptr inbounds nuw %struct.FFIOContext, ptr %6, i32 0, i32 0
  %28 = load ptr, ptr %5, align 8, !tbaa !9
  %29 = call i32 @avio_put_str16le(ptr noundef %27, ptr noundef %28)
  store i32 %29, ptr %8, align 4, !tbaa !11
  %30 = load i32, ptr %8, align 4, !tbaa !11
  %31 = icmp slt i32 %30, 0
  br i1 %31, label %32, label %34

32:                                               ; preds = %2
  %33 = load i32, ptr %8, align 4, !tbaa !11
  store i32 %33, ptr %3, align 4
  store i32 1, ptr %9, align 4
  br label %41

34:                                               ; preds = %2
  %35 = load i32, ptr %8, align 4, !tbaa !11
  %36 = load ptr, ptr %4, align 8, !tbaa !22
  %37 = getelementptr inbounds nuw %struct.MMSContext, ptr %36, i32 0, i32 2
  %38 = load ptr, ptr %37, align 8, !tbaa !50
  %39 = sext i32 %35 to i64
  %40 = getelementptr inbounds i8, ptr %38, i64 %39
  store ptr %40, ptr %37, align 8, !tbaa !50
  store i32 0, ptr %3, align 4
  store i32 1, ptr %9, align 4
  br label %41

41:                                               ; preds = %34, %32
  call void @llvm.lifetime.end.p0(i64 4, ptr %8) #8
  call void @llvm.lifetime.end.p0(i64 4, ptr %7) #8
  call void @llvm.lifetime.end.p0(i64 280, ptr %6) #8
  %42 = load i32, ptr %3, align 4
  ret i32 %42
}

; Function Attrs: alwaysinline nounwind uwtable
define internal void @bytestream_put_le32(ptr noundef %0, i32 noundef %1) #5 {
  %3 = alloca ptr, align 8
  %4 = alloca i32, align 4
  store ptr %0, ptr %3, align 8, !tbaa !52
  store i32 %1, ptr %4, align 4, !tbaa !11
  %5 = load i32, ptr %4, align 4, !tbaa !11
  %6 = load ptr, ptr %3, align 8, !tbaa !52
  %7 = load ptr, ptr %6, align 8, !tbaa !9
  store i32 %5, ptr %7, align 1, !tbaa !47
  %8 = load ptr, ptr %3, align 8, !tbaa !52
  %9 = load ptr, ptr %8, align 8, !tbaa !9
  %10 = getelementptr inbounds i8, ptr %9, i64 4
  store ptr %10, ptr %8, align 8, !tbaa !9
  ret void
}

; Function Attrs: nounwind uwtable
define internal void @insert_command_prefixes(ptr noundef %0, i32 noundef %1, i32 noundef %2) #0 {
  %4 = alloca ptr, align 8
  %5 = alloca i32, align 4
  %6 = alloca i32, align 4
  store ptr %0, ptr %4, align 8, !tbaa !22
  store i32 %1, ptr %5, align 4, !tbaa !11
  store i32 %2, ptr %6, align 4, !tbaa !11
  %7 = load ptr, ptr %4, align 8, !tbaa !22
  %8 = getelementptr inbounds nuw %struct.MMSContext, ptr %7, i32 0, i32 2
  %9 = load i32, ptr %5, align 4, !tbaa !11
  call void @bytestream_put_le32(ptr noundef %8, i32 noundef %9)
  %10 = load ptr, ptr %4, align 8, !tbaa !22
  %11 = getelementptr inbounds nuw %struct.MMSContext, ptr %10, i32 0, i32 2
  %12 = load i32, ptr %6, align 4, !tbaa !11
  call void @bytestream_put_le32(ptr noundef %11, i32 noundef %12)
  ret void
}

; Function Attrs: nounwind uwtable
define internal void @start_command_packet(ptr noundef %0, i32 noundef %1) #0 {
  %3 = alloca ptr, align 8
  %4 = alloca i32, align 4
  %5 = alloca ptr, align 8
  store ptr %0, ptr %3, align 8, !tbaa !19
  store i32 %1, ptr %4, align 4, !tbaa !11
  call void @llvm.lifetime.start.p0(i64 8, ptr %5) #8
  %6 = load ptr, ptr %3, align 8, !tbaa !19
  %7 = getelementptr inbounds nuw %struct.MMSTContext, ptr %6, i32 0, i32 0
  store ptr %7, ptr %5, align 8, !tbaa !22
  %8 = load ptr, ptr %5, align 8, !tbaa !22
  %9 = getelementptr inbounds nuw %struct.MMSContext, ptr %8, i32 0, i32 3
  %10 = getelementptr inbounds [512 x i8], ptr %9, i64 0, i64 0
  %11 = load ptr, ptr %5, align 8, !tbaa !22
  %12 = getelementptr inbounds nuw %struct.MMSContext, ptr %11, i32 0, i32 2
  store ptr %10, ptr %12, align 8, !tbaa !50
  %13 = load ptr, ptr %5, align 8, !tbaa !22
  %14 = getelementptr inbounds nuw %struct.MMSContext, ptr %13, i32 0, i32 2
  call void @bytestream_put_le32(ptr noundef %14, i32 noundef 1)
  %15 = load ptr, ptr %5, align 8, !tbaa !22
  %16 = getelementptr inbounds nuw %struct.MMSContext, ptr %15, i32 0, i32 2
  call void @bytestream_put_le32(ptr noundef %16, i32 noundef -1341392178)
  %17 = load ptr, ptr %5, align 8, !tbaa !22
  %18 = getelementptr inbounds nuw %struct.MMSContext, ptr %17, i32 0, i32 2
  call void @bytestream_put_le32(ptr noundef %18, i32 noundef 0)
  %19 = load ptr, ptr %5, align 8, !tbaa !22
  %20 = getelementptr inbounds nuw %struct.MMSContext, ptr %19, i32 0, i32 2
  call void @bytestream_put_le32(ptr noundef %20, i32 noundef 542330189)
  %21 = load ptr, ptr %5, align 8, !tbaa !22
  %22 = getelementptr inbounds nuw %struct.MMSContext, ptr %21, i32 0, i32 2
  call void @bytestream_put_le32(ptr noundef %22, i32 noundef 0)
  %23 = load ptr, ptr %5, align 8, !tbaa !22
  %24 = getelementptr inbounds nuw %struct.MMSContext, ptr %23, i32 0, i32 2
  %25 = load ptr, ptr %3, align 8, !tbaa !19
  %26 = getelementptr inbounds nuw %struct.MMSTContext, ptr %25, i32 0, i32 1
  %27 = load i32, ptr %26, align 8, !tbaa !51
  %28 = add nsw i32 %27, 1
  store i32 %28, ptr %26, align 8, !tbaa !51
  call void @bytestream_put_le32(ptr noundef %24, i32 noundef %27)
  %29 = load ptr, ptr %5, align 8, !tbaa !22
  %30 = getelementptr inbounds nuw %struct.MMSContext, ptr %29, i32 0, i32 2
  call void @bytestream_put_le64(ptr noundef %30, i64 noundef 0)
  %31 = load ptr, ptr %5, align 8, !tbaa !22
  %32 = getelementptr inbounds nuw %struct.MMSContext, ptr %31, i32 0, i32 2
  call void @bytestream_put_le32(ptr noundef %32, i32 noundef 0)
  %33 = load ptr, ptr %5, align 8, !tbaa !22
  %34 = getelementptr inbounds nuw %struct.MMSContext, ptr %33, i32 0, i32 2
  %35 = load i32, ptr %4, align 4, !tbaa !11
  call void @bytestream_put_le16(ptr noundef %34, i32 noundef %35)
  %36 = load ptr, ptr %5, align 8, !tbaa !22
  %37 = getelementptr inbounds nuw %struct.MMSContext, ptr %36, i32 0, i32 2
  call void @bytestream_put_le16(ptr noundef %37, i32 noundef 3)
  call void @llvm.lifetime.end.p0(i64 8, ptr %5) #8
  ret void
}

; Function Attrs: nounwind uwtable
define internal i32 @send_protocol_select(ptr noundef %0) #0 {
  %2 = alloca i32, align 4
  %3 = alloca ptr, align 8
  %4 = alloca i32, align 4
  %5 = alloca [256 x i8], align 16
  %6 = alloca ptr, align 8
  %7 = alloca i32, align 4
  store ptr %0, ptr %3, align 8, !tbaa !19
  call void @llvm.lifetime.start.p0(i64 4, ptr %4) #8
  call void @llvm.lifetime.start.p0(i64 256, ptr %5) #8
  call void @llvm.lifetime.start.p0(i64 8, ptr %6) #8
  %8 = load ptr, ptr %3, align 8, !tbaa !19
  %9 = getelementptr inbounds nuw %struct.MMSTContext, ptr %8, i32 0, i32 0
  store ptr %9, ptr %6, align 8, !tbaa !22
  %10 = load ptr, ptr %3, align 8, !tbaa !19
  call void @start_command_packet(ptr noundef %10, i32 noundef 2)
  %11 = load ptr, ptr %6, align 8, !tbaa !22
  call void @insert_command_prefixes(ptr noundef %11, i32 noundef 0, i32 noundef -1)
  %12 = load ptr, ptr %6, align 8, !tbaa !22
  %13 = getelementptr inbounds nuw %struct.MMSContext, ptr %12, i32 0, i32 2
  call void @bytestream_put_le32(ptr noundef %13, i32 noundef 0)
  %14 = load ptr, ptr %6, align 8, !tbaa !22
  %15 = getelementptr inbounds nuw %struct.MMSContext, ptr %14, i32 0, i32 2
  call void @bytestream_put_le32(ptr noundef %15, i32 noundef 10000000)
  %16 = load ptr, ptr %6, align 8, !tbaa !22
  %17 = getelementptr inbounds nuw %struct.MMSContext, ptr %16, i32 0, i32 2
  call void @bytestream_put_le32(ptr noundef %17, i32 noundef 2)
  %18 = getelementptr inbounds [256 x i8], ptr %5, i64 0, i64 0
  %19 = call i32 (ptr, i64, ptr, ...) @snprintf(ptr noundef %18, i64 noundef 256, ptr noundef @.str.24, i32 noundef 192, i32 noundef 168, i32 noundef 0, i32 noundef 129, ptr noundef @.str.25, i32 noundef 1037) #8
  %20 = load ptr, ptr %6, align 8, !tbaa !22
  %21 = getelementptr inbounds [256 x i8], ptr %5, i64 0, i64 0
  %22 = call i32 @mms_put_utf16(ptr noundef %20, ptr noundef %21)
  store i32 %22, ptr %4, align 4, !tbaa !11
  %23 = icmp slt i32 %22, 0
  br i1 %23, label %24, label %26

24:                                               ; preds = %1
  %25 = load i32, ptr %4, align 4, !tbaa !11
  store i32 %25, ptr %2, align 4
  store i32 1, ptr %7, align 4
  br label %29

26:                                               ; preds = %1
  %27 = load ptr, ptr %3, align 8, !tbaa !19
  %28 = call i32 @send_command_packet(ptr noundef %27)
  store i32 %28, ptr %2, align 4
  store i32 1, ptr %7, align 4
  br label %29

29:                                               ; preds = %26, %24
  call void @llvm.lifetime.end.p0(i64 8, ptr %6) #8
  call void @llvm.lifetime.end.p0(i64 256, ptr %5) #8
  call void @llvm.lifetime.end.p0(i64 4, ptr %4) #8
  %30 = load i32, ptr %2, align 4
  ret i32 %30
}