; Function Attrs: nounwind uwtable
define internal range(i32 -2147483648, 1) i32 @send_protocol_select(ptr noundef initializes((24, 84)) %0) #0 {
  %2 = alloca %struct.FFIOContext, align 8
  %3 = alloca [256 x i8], align 16
  call void @llvm.lifetime.start.p0(i64 256, ptr nonnull %3) #7
  %4 = getelementptr inbounds nuw i8, ptr %0, i64 24
  %5 = getelementptr inbounds nuw i8, ptr %0, i64 16
  store i32 1, ptr %4, align 1, !tbaa !36
  %6 = getelementptr inbounds nuw i8, ptr %0, i64 28
  store i32 -1341392178, ptr %6, align 1, !tbaa !36
  %7 = getelementptr inbounds nuw i8, ptr %0, i64 32
  store i32 0, ptr %7, align 1, !tbaa !36
  %8 = getelementptr inbounds nuw i8, ptr %0, i64 36
  store i32 542330189, ptr %8, align 1, !tbaa !36
  %9 = getelementptr inbounds nuw i8, ptr %0, i64 40
  store i32 0, ptr %9, align 1, !tbaa !36
  %10 = getelementptr inbounds nuw i8, ptr %0, i64 44
  %11 = getelementptr inbounds nuw i8, ptr %0, i64 66120
  %12 = load i32, ptr %11, align 8, !tbaa !37
  %13 = add nsw i32 %12, 1
  store i32 %13, ptr %11, align 8, !tbaa !37
  store i32 %12, ptr %10, align 1, !tbaa !36
  %14 = getelementptr inbounds nuw i8, ptr %0, i64 48
  store i64 0, ptr %14, align 1, !tbaa !36
  %15 = getelementptr inbounds nuw i8, ptr %0, i64 56
  store i32 0, ptr %15, align 1, !tbaa !36
  %16 = getelementptr inbounds nuw i8, ptr %0, i64 60
  store i16 2, ptr %16, align 1, !tbaa !36
  %17 = getelementptr inbounds nuw i8, ptr %0, i64 62
  store i16 3, ptr %17, align 1, !tbaa !36
  %18 = getelementptr inbounds nuw i8, ptr %0, i64 64
  store i32 0, ptr %18, align 1, !tbaa !36
  %19 = getelementptr inbounds nuw i8, ptr %0, i64 68
  store i32 -1, ptr %19, align 1, !tbaa !36
  %20 = getelementptr inbounds nuw i8, ptr %0, i64 72
  store i32 0, ptr %20, align 1, !tbaa !36
  %21 = getelementptr inbounds nuw i8, ptr %0, i64 76
  store i32 10000000, ptr %21, align 1, !tbaa !36
  %22 = getelementptr inbounds nuw i8, ptr %0, i64 80
  store i32 2, ptr %22, align 1, !tbaa !36
  %23 = getelementptr inbounds nuw i8, ptr %0, i64 84
  store ptr %23, ptr %5, align 8, !tbaa !38
  %24 = call i32 (ptr, i64, ptr, ...) @snprintf(ptr noundef nonnull dereferenceable(1) %3, i64 noundef 256, ptr noundef nonnull @.str.24, i32 noundef 192, i32 noundef 168, i32 noundef 0, i32 noundef 129, ptr noundef nonnull @.str.25, i32 noundef 1037) #7
  call void @llvm.lifetime.start.p0(i64 280, ptr nonnull %2) #7
  %25 = load ptr, ptr %5, align 8, !tbaa !41
  %26 = ptrtoint ptr %25 to i64
  %27 = ptrtoint ptr %4 to i64
  %.neg.i = sub i64 %27, %26
  %28 = trunc i64 %.neg.i to i32
  %29 = add i32 %28, 512
  call void @ffio_init_write_context(ptr noundef nonnull %2, ptr noundef %25, i32 noundef %29) #7
  %30 = call i32 @avio_put_str16le(ptr noundef nonnull %2, ptr noundef nonnull %3) #7
  %31 = icmp slt i32 %30, 0
  br i1 %31, label %mms_put_utf16.exit.thread, label %32

mms_put_utf16.exit.thread:                        ; preds = %1
  call void @llvm.lifetime.end.p0(i64 280, ptr nonnull %2) #7
  br label %send_command_packet.exit

32:                                               ; preds = %1
  %33 = load ptr, ptr %5, align 8, !tbaa !41
  %34 = zext nneg i32 %30 to i64
  %35 = getelementptr inbounds nuw i8, ptr %33, i64 %34
  store ptr %35, ptr %5, align 8, !tbaa !41
  call void @llvm.lifetime.end.p0(i64 280, ptr nonnull %2) #7
  %36 = ptrtoint ptr %35 to i64
  %37 = sub i64 %36, %27
  %38 = trunc i64 %37 to i32
  %39 = add nsw i32 %38, 7
  %40 = and i32 %39, -8
  %41 = add nsw i32 %40, -16
  %42 = ashr exact i32 %41, 3
  store i32 %41, ptr %7, align 1, !tbaa !36
  store i32 %42, ptr %9, align 1, !tbaa !36
  %43 = add nsw i32 %42, -2
  store i32 %43, ptr %15, align 1, !tbaa !36
  %44 = sub nsw i32 %40, %38
  %45 = sext i32 %44 to i64
  call void @llvm.memset.p0.i64(ptr align 1 %35, i8 0, i64 %45, i1 false)
  %46 = load ptr, ptr %0, align 8, !tbaa !31
  %47 = call i32 @ffurl_write2(ptr noundef %46, ptr noundef nonnull %4, i32 noundef range(i32 0, -7) %40) #7
  %.not.i = icmp eq i32 %47, %40
  br i1 %.not.i, label %send_command_packet.exit, label %48

48:                                               ; preds = %32
  %49 = load ptr, ptr %0, align 8, !tbaa !31
  %50 = icmp slt i32 %47, 0
  br i1 %50, label %51, label %54

51:                                               ; preds = %48
  %52 = sub nsw i32 0, %47
  %53 = call ptr @strerror(i32 noundef %52) #7
  br label %54

54:                                               ; preds = %51, %48
  %55 = phi ptr [ %53, %51 ], [ @.str.11, %48 ]
  call void (ptr, i32, ptr, ...) @av_log(ptr noundef %49, i32 noundef 16, ptr noundef nonnull @.str.19, i32 noundef %40, i32 noundef %47, ptr noundef %55) #7
  br label %send_command_packet.exit

send_command_packet.exit:                         ; preds = %54, %32, %mms_put_utf16.exit.thread
  %.0 = phi i32 [ %30, %mms_put_utf16.exit.thread ], [ -5, %54 ], [ 0, %32 ]
  call void @llvm.lifetime.end.p0(i64 256, ptr nonnull %3) #7
  ret i32 %.0
}